target datalayout = "e-m:e-p270:32:32-p271:32:32-p272:64:64-i64:64-i128:128-f80:128-n8:16:32:64-S128"
target triple = "x86_64-pc-linux-gnu"

%class.ClassVerifier = type { ptr, ptr, ptr, ptr, ptr, %class.ResourceHashtable, %class.ErrorContext, ptr, %class.methodHandle, %class.VerificationType }
%class.ResourceHashtable = type { %class.ResourceHashtableBase.base, [4 x i8] }
%class.ResourceHashtableBase.base = type <{ %class.FixedResourceHashtableStorage, i32 }>
%class.FixedResourceHashtableStorage = type { [1007 x ptr] }
%class.ErrorContext = type { i32, i32, %class.TypeOrigin, %class.TypeOrigin }
%class.TypeOrigin = type { i32, i32, ptr, %class.VerificationType }
%class.methodHandle = type { ptr, ptr }
%class.VerificationType = type { %union.anon.3 }
%union.anon.3 = type { ptr }
%class.ThreadShadow = type <{ ptr, ptr, ptr, i32, [4 x i8] }>
%class.StackMapFrame = type { i32, i32, i32, i32, i16, i16, i8, ptr, ptr, ptr }
%class.StackMapTable = type { i32, i32, ptr }

@.str.99 = private unnamed_addr constant [28 x i8] c"Expecting a stack map frame\00", align 1
@.str.100 = private unnamed_addr constant [42 x i8] c"Instruction type does not match stack map\00", align 1
@.str.101 = private unnamed_addr constant [24 x i8] c"Bad stack map offset %d\00", align 1

; Function Attrs: mustprogress nounwind uwtable
define linkonce_odr hidden void @_ZN16VerificationTypeC2Em(ptr noundef nonnull align 8 dereferenceable(8) %0, i64 noundef %1) unnamed_addr #1 comdat align 2 {
  %3 = alloca ptr, align 8
  %4 = alloca i64, align 8
  store ptr %0, ptr %3, align 8
  store i64 %1, ptr %4, align 8
  %5 = load ptr, ptr %3, align 8
  %6 = load i64, ptr %4, align 8
  %7 = getelementptr inbounds %class.VerificationType, ptr %5, i32 0, i32 0
  store i64 %6, ptr %7, align 8
  ret void
}

; Function Attrs: mustprogress nounwind uwtable
define linkonce_odr hidden ptr @_ZN16VerificationType10bogus_typeEv() #1 comdat align 2 {
  %1 = alloca %class.VerificationType, align 8
  call void @_ZN16VerificationTypeC2Em(ptr noundef nonnull align 8 dereferenceable(8) %1, i64 noundef 4294901761)
  %2 = getelementptr inbounds %class.VerificationType, ptr %1, i32 0, i32 0
  %3 = getelementptr inbounds %union.anon.3, ptr %2, i32 0, i32 0
  %4 = load ptr, ptr %3, align 8
  ret ptr %4
}

; Function Attrs: mustprogress nounwind uwtable
define linkonce_odr hidden void @_ZN16VerificationTypeC2Ev(ptr noundef nonnull align 8 dereferenceable(8) %0) unnamed_addr #1 comdat align 2 {
  %2 = alloca ptr, align 8
  %3 = alloca %class.VerificationType, align 8
  store ptr %0, ptr %2, align 8
  %4 = load ptr, ptr %2, align 8
  %5 = call ptr @_ZN16VerificationType10bogus_typeEv()
  %6 = getelementptr inbounds %class.VerificationType, ptr %3, i32 0, i32 0
  %7 = getelementptr inbounds %union.anon.3, ptr %6, i32 0, i32 0
  store ptr %5, ptr %7, align 8
  call void @llvm.memcpy.p0.p0.i64(ptr align 8 %4, ptr align 8 %3, i64 8, i1 false)
  ret void
}

; Function Attrs: mustprogress nounwind uwtable
define linkonce_odr hidden noundef ptr @_ZNK13ClassVerifier6resultEv(ptr noundef nonnull align 8 dereferenceable(8192) %0) #1 comdat align 2 {
  %2 = alloca ptr, align 8
  store ptr %0, ptr %2, align 8
  %3 = load ptr, ptr %2, align 8
  %4 = getelementptr inbounds %class.ClassVerifier, ptr %3, i32 0, i32 3
  %5 = load ptr, ptr %4, align 8
  ret ptr %5
}

; Function Attrs: mustprogress nounwind uwtable
define linkonce_odr hidden void @_ZN10TypeOriginC2Ev(ptr noundef nonnull align 8 dereferenceable(24) %0) unnamed_addr #1 comdat align 2 {
  %2 = alloca ptr, align 8
  store ptr %0, ptr %2, align 8
  %3 = load ptr, ptr %2, align 8
  %4 = getelementptr inbounds %class.TypeOrigin, ptr %3, i32 0, i32 0
  store i32 9, ptr %4, align 8
  %5 = getelementptr inbounds %class.TypeOrigin, ptr %3, i32 0, i32 1
  store i32 0, ptr %5, align 4
  %6 = getelementptr inbounds %class.TypeOrigin, ptr %3, i32 0, i32 2
  store ptr null, ptr %6, align 8
  %7 = getelementptr inbounds %class.TypeOrigin, ptr %3, i32 0, i32 3
  call void @_ZN16VerificationTypeC2Ev(ptr noundef nonnull align 8 dereferenceable(8) %7)
  ret void
}

; Function Attrs: mustprogress nounwind uwtable
define linkonce_odr hidden void @_ZN12ErrorContextC2EiNS_9FaultTypeE(ptr noundef nonnull align 8 dereferenceable(56) %0, i32 noundef %1, i32 noundef %2) unnamed_addr #1 comdat align 2 {
  %4 = alloca ptr, align 8
  %5 = alloca i32, align 4
  %6 = alloca i32, align 4
  store ptr %0, ptr %4, align 8
  store i32 %1, ptr %5, align 4
  store i32 %2, ptr %6, align 4
  %7 = load ptr, ptr %4, align 8
  %8 = getelementptr inbounds %class.ErrorContext, ptr %7, i32 0, i32 0
  %9 = load i32, ptr %5, align 4
  store i32 %9, ptr %8, align 8
  %10 = getelementptr inbounds %class.ErrorContext, ptr %7, i32 0, i32 1
  %11 = load i32, ptr %6, align 4
  store i32 %11, ptr %10, align 4
  %12 = getelementptr inbounds %class.ErrorContext, ptr %7, i32 0, i32 2
  call void @_ZN10TypeOriginC2Ev(ptr noundef nonnull align 8 dereferenceable(24) %12)
  %13 = getelementptr inbounds %class.ErrorContext, ptr %7, i32 0, i32 3
  call void @_ZN10TypeOriginC2Ev(ptr noundef nonnull align 8 dereferenceable(24) %13)
  ret void
}

; Function Attrs: mustprogress nounwind uwtable
define linkonce_odr hidden noundef i32 @_ZNK13StackMapFrame6offsetEv(ptr noundef nonnull align 8 dereferenceable(48) %0) #1 comdat align 2 {
  %2 = alloca ptr, align 8
  store ptr %0, ptr %2, align 8
  %3 = load ptr, ptr %2, align 8
  %4 = getelementptr inbounds %class.StackMapFrame, ptr %3, i32 0, i32 0
  %5 = load i32, ptr %4, align 8
  ret i32 %5
}

; Function Attrs: mustprogress nounwind uwtable
define linkonce_odr hidden void @_ZN12ErrorContext8bad_codeEi(ptr dead_on_unwind noalias writable sret(%class.ErrorContext) align 8 %0, i32 noundef %1) #1 comdat align 2 {
  %3 = alloca i32, align 4
  store i32 %1, ptr %3, align 4
  %4 = load i32, ptr %3, align 4
  call void @_ZN12ErrorContextC2EiNS_9FaultTypeE(ptr noundef nonnull align 8 dereferenceable(56) %0, i32 noundef %4, i32 noundef 0)
  ret void
}

; Function Attrs: mustprogress nounwind uwtable
define linkonce_odr hidden noundef zeroext i1 @_ZNK13ClassVerifier9has_errorEv(ptr noundef nonnull align 8 dereferenceable(8192) %0) #1 comdat align 2 {
  %2 = alloca ptr, align 8
  store ptr %0, ptr %2, align 8
  %3 = load ptr, ptr %2, align 8
  %4 = call noundef ptr @_ZNK13ClassVerifier6resultEv(ptr noundef nonnull align 8 dereferenceable(8192) %3)
  %5 = icmp ne ptr %4, null
  ret i1 %5
}

; Function Attrs: mustprogress nounwind uwtable
define linkonce_odr hidden noundef zeroext i1 @_ZNK12ThreadShadow21has_pending_exceptionEv(ptr noundef nonnull align 8 dereferenceable(28) %0) #1 comdat align 2 {
  %2 = alloca ptr, align 8
  store ptr %0, ptr %2, align 8
  %3 = load ptr, ptr %2, align 8
  %4 = getelementptr inbounds %class.ThreadShadow, ptr %3, i32 0, i32 1
  %5 = load ptr, ptr %4, align 8
  %6 = icmp ne ptr %5, null
  ret i1 %6
}

; Function Attrs: mustprogress nounwind uwtable
define linkonce_odr hidden void @_ZN12ErrorContextC2Ev(ptr noundef nonnull align 8 dereferenceable(56) %0) unnamed_addr #1 comdat align 2 {
  %2 = alloca ptr, align 8
  store ptr %0, ptr %2, align 8
  %3 = load ptr, ptr %2, align 8
  %4 = getelementptr inbounds %class.ErrorContext, ptr %3, i32 0, i32 0
  store i32 -1, ptr %4, align 8
  %5 = getelementptr inbounds %class.ErrorContext, ptr %3, i32 0, i32 1
  store i32 11, ptr %5, align 4
  %6 = getelementptr inbounds %class.ErrorContext, ptr %3, i32 0, i32 2
  call void @_ZN10TypeOriginC2Ev(ptr noundef nonnull align 8 dereferenceable(24) %6)
  %7 = getelementptr inbounds %class.ErrorContext, ptr %3, i32 0, i32 3
  call void @_ZN10TypeOriginC2Ev(ptr noundef nonnull align 8 dereferenceable(24) %7)
  ret void
}

; Function Attrs: mustprogress nounwind uwtable
define linkonce_odr hidden void @_ZN12ErrorContext16missing_stackmapEi(ptr dead_on_unwind noalias writable sret(%class.ErrorContext) align 8 %0, i32 noundef %1) #1 comdat align 2 {
  %3 = alloca i32, align 4
  store i32 %1, ptr %3, align 4
  %4 = load i32, ptr %3, align 4
  call void @_ZN12ErrorContextC2EiNS_9FaultTypeE(ptr noundef nonnull align 8 dereferenceable(56) %0, i32 noundef %4, i32 noundef 9)
  ret void
}

; Function Attrs: mustprogress nounwind uwtable
define linkonce_odr hidden noundef i32 @_ZNK13StackMapTable10get_offsetEi(ptr noundef nonnull align 8 dereferenceable(16) %0, i32 noundef %1) #1 comdat align 2 {
  %3 = alloca ptr, align 8
  %4 = alloca i32, align 4
  store ptr %0, ptr %3, align 8
  store i32 %1, ptr %4, align 4
  %5 = load ptr, ptr %3, align 8
  %6 = getelementptr inbounds %class.StackMapTable, ptr %5, i32 0, i32 2
  %7 = load ptr, ptr %6, align 8
  %8 = load i32, ptr %4, align 4
  %9 = sext i32 %8 to i64
  %10 = getelementptr inbounds ptr, ptr %7, i64 %9
  %11 = load ptr, ptr %10, align 8
  %12 = call noundef i32 @_ZNK13StackMapFrame6offsetEv(ptr noundef nonnull align 8 dereferenceable(48) %11)
  ret i32 %12
}

; Function Attrs: mustprogress nounwind uwtable
define linkonce_odr hidden noundef i32 @_ZNK13StackMapTable15get_frame_countEv(ptr noundef nonnull align 8 dereferenceable(16) %0) #1 comdat align 2 {
  %2 = alloca ptr, align 8
  store ptr %0, ptr %2, align 8
  %3 = load ptr, ptr %2, align 8
  %4 = getelementptr inbounds %class.StackMapTable, ptr %3, i32 0, i32 1
  %5 = load i32, ptr %4, align 4
  ret i32 %5
}

; Function Attrs: mustprogress nounwind uwtable
define hidden noundef zeroext i16 @_ZN13ClassVerifier21verify_stackmap_tableEtiP13StackMapFrameP13StackMapTablebP10JavaThread(ptr noundef nonnull align 8 dereferenceable(8192) %0, i16 noundef zeroext %1, i32 noundef %2, ptr noundef %3, ptr noundef %4, i1 noundef zeroext %5, ptr noundef %6) #1 align 2 {
  %8 = alloca i16, align 2
  %9 = alloca ptr, align 8
  %10 = alloca i16, align 2
  %11 = alloca i32, align 4
  %12 = alloca ptr, align 8
  %13 = alloca ptr, align 8
  %14 = alloca i8, align 1
  %15 = alloca ptr, align 8
  %16 = alloca i32, align 4
  %17 = alloca %class.ErrorContext, align 8
  %18 = alloca %class.ErrorContext, align 8
  %19 = alloca i8, align 1
  %20 = alloca %class.ErrorContext, align 8
  %21 = alloca %class.ErrorContext, align 8
  store ptr %0, ptr %9, align 8
  store i16 %1, ptr %10, align 2
  store i32 %2, ptr %11, align 4
  store ptr %3, ptr %12, align 8
  store ptr %4, ptr %13, align 8
  %22 = zext i1 %5 to i8
  store i8 %22, ptr %14, align 1
  store ptr %6, ptr %15, align 8
  %23 = load ptr, ptr %9, align 8
  %24 = load i16, ptr %10, align 2
  %25 = zext i16 %24 to i32
  %26 = load ptr, ptr %13, align 8
  %27 = call noundef i32 @_ZNK13StackMapTable15get_frame_countEv(ptr noundef nonnull align 8 dereferenceable(16) %26)
  %28 = icmp slt i32 %25, %27
  br i1 %28, label %29, label %79

29:                                               ; preds = %7
  %30 = load ptr, ptr %13, align 8
  %31 = load i16, ptr %10, align 2
  %32 = zext i16 %31 to i32
  %33 = call noundef i32 @_ZNK13StackMapTable10get_offsetEi(ptr noundef nonnull align 8 dereferenceable(16) %30, i32 noundef %32)
  store i32 %33, ptr %16, align 4
  %34 = load i8, ptr %14, align 1
  %35 = trunc i8 %34 to i1
  br i1 %35, label %36, label %42

36:                                               ; preds = %29
  %37 = load i32, ptr %16, align 4
  %38 = load i32, ptr %11, align 4
  %39 = icmp sgt i32 %37, %38
  br i1 %39, label %40, label %42

40:                                               ; preds = %36
  %41 = load i32, ptr %11, align 4
  call void @_ZN12ErrorContext16missing_stackmapEi(ptr dead_on_unwind writable sret(%class.ErrorContext) align 8 %17, i32 noundef %41)
  call void (ptr, ptr, ptr, ...) @_ZN13ClassVerifier12verify_errorE12ErrorContextPKcz(ptr noundef nonnull align 8 dereferenceable(8192) %23, ptr noundef byval(%class.ErrorContext) align 8 %17, ptr noundef @.str.99)
  store i16 0, ptr %8, align 2
  br label %87

42:                                               ; preds = %36, %29
  %43 = load i32, ptr %16, align 4
  %44 = load i32, ptr %11, align 4
  %45 = icmp eq i32 %43, %44
  br i1 %45, label %46, label %71

46:                                               ; preds = %42
  call void @_ZN12ErrorContextC2Ev(ptr noundef nonnull align 8 dereferenceable(56) %18)
  %47 = load ptr, ptr %13, align 8
  %48 = load ptr, ptr %12, align 8
  %49 = load i32, ptr %16, align 4
  %50 = load i16, ptr %10, align 2
  %51 = zext i16 %50 to i32
  %52 = load i8, ptr %14, align 1
  %53 = trunc i8 %52 to i1
  %54 = xor i1 %53, true
  %55 = load ptr, ptr %15, align 8
  %56 = call noundef zeroext i1 @_ZNK13StackMapTable14match_stackmapEP13StackMapFrameiibbP12ErrorContextP10JavaThread(ptr noundef nonnull align 8 dereferenceable(16) %47, ptr noundef %48, i32 noundef %49, i32 noundef %51, i1 noundef zeroext %54, i1 noundef zeroext true, ptr noundef %18, ptr noundef %55)
  %57 = zext i1 %56 to i8
  store i8 %57, ptr %19, align 1
  %58 = load ptr, ptr %15, align 8
  %59 = call noundef zeroext i1 @_ZNK12ThreadShadow21has_pending_exceptionEv(ptr noundef nonnull align 8 dereferenceable(28) %58)
  br i1 %59, label %60, label %61

60:                                               ; preds = %46
  store i16 0, ptr %8, align 2
  br label %87

61:                                               ; preds = %46
  %62 = call noundef zeroext i1 @_ZNK13ClassVerifier9has_errorEv(ptr noundef nonnull align 8 dereferenceable(8192) %23)
  br i1 %62, label %63, label %64

63:                                               ; preds = %61
  store i16 0, ptr %8, align 2
  br label %87

64:                                               ; preds = %61
  %65 = load i8, ptr %19, align 1
  %66 = trunc i8 %65 to i1
  br i1 %66, label %68, label %67

67:                                               ; preds = %64
  call void @llvm.memcpy.p0.p0.i64(ptr align 8 %20, ptr align 8 %18, i64 56, i1 false)
  call void (ptr, ptr, ptr, ...) @_ZN13ClassVerifier12verify_errorE12ErrorContextPKcz(ptr noundef nonnull align 8 dereferenceable(8192) %23, ptr noundef byval(%class.ErrorContext) align 8 %20, ptr noundef @.str.100)
  store i16 0, ptr %8, align 2
  br label %87

68:                                               ; preds = %64
  %69 = load i16, ptr %10, align 2
  %70 = add i16 %69, 1
  store i16 %70, ptr %10, align 2
  br label %78

71:                                               ; preds = %42
  %72 = load i32, ptr %16, align 4
  %73 = load i32, ptr %11, align 4
  %74 = icmp slt i32 %72, %73
  br i1 %74, label %75, label %77

75:                                               ; preds = %71
  %76 = load i32, ptr %16, align 4
  call void (ptr, ptr, ...) @_ZN13ClassVerifier18class_format_errorEPKcz(ptr noundef nonnull align 8 dereferenceable(8192) %23, ptr noundef @.str.101, i32 noundef %76)
  store i16 0, ptr %8, align 2
  br label %87

77:                                               ; preds = %71
  br label %78

78:                                               ; preds = %77, %68
  br label %85

79:                                               ; preds = %7
  %80 = load i8, ptr %14, align 1
  %81 = trunc i8 %80 to i1
  br i1 %81, label %82, label %84

82:                                               ; preds = %79
  %83 = load i32, ptr %11, align 4
  call void @_ZN12ErrorContext8bad_codeEi(ptr dead_on_unwind writable sret(%class.ErrorContext) align 8 %21, i32 noundef %83)
  call void (ptr, ptr, ptr, ...) @_ZN13ClassVerifier12verify_errorE12ErrorContextPKcz(ptr noundef nonnull align 8 dereferenceable(8192) %23, ptr noundef byval(%class.ErrorContext) align 8 %21, ptr noundef @.str.99)
  store i16 0, ptr %8, align 2
  br label %87

84:                                               ; preds = %79
  br label %85

85:                                               ; preds = %84, %78
  %86 = load i16, ptr %10, align 2
  store i16 %86, ptr %8, align 2
  br label %87

87:                                               ; preds = %85, %82, %75, %67, %63, %60, %40
  %88 = load i16, ptr %8, align 2
  ret i16 %88
}