; Function Attrs: mustprogress nounwind uwtable
define hidden noundef zeroext i16 @_ZN13ClassVerifier21verify_stackmap_tableEtiP13StackMapFrameP13StackMapTablebP10JavaThread(ptr nocapture noundef nonnull align 8 dereferenceable(8192) %0, i16 noundef zeroext %1, i32 noundef %2, ptr noundef %3, ptr noundef %4, i1 noundef zeroext %5, ptr noundef %6) local_unnamed_addr #1 align 2 {
  %8 = alloca %class.ErrorContext, align 8
  %9 = alloca %class.ErrorContext, align 16
  %10 = alloca %class.ErrorContext, align 8
  %11 = zext i16 %1 to i32
  %12 = getelementptr inbounds i8, ptr %4, i64 4
  %13 = load i32, ptr %12, align 4
  %14 = icmp sgt i32 %13, %11
  br i1 %14, label %15, label %57

15:                                               ; preds = %7
  %16 = getelementptr inbounds i8, ptr %4, i64 8
  %17 = load ptr, ptr %16, align 8
  %18 = zext i16 %1 to i64
  %19 = getelementptr inbounds ptr, ptr %17, i64 %18
  %20 = load ptr, ptr %19, align 8
  %21 = load i32, ptr %20, align 8
  %22 = icmp sgt i32 %21, %2
  %or.cond = and i1 %22, %5
  br i1 %or.cond, label %23, label %33

23:                                               ; preds = %15
  store i32 %2, ptr %8, align 8, !alias.scope !168
  %24 = getelementptr inbounds i8, ptr %8, i64 4
  store i32 9, ptr %24, align 4, !alias.scope !168
  %25 = getelementptr inbounds i8, ptr %8, i64 8
  store i32 9, ptr %25, align 8, !alias.scope !168
  %26 = getelementptr inbounds i8, ptr %8, i64 12
  store i32 0, ptr %26, align 4, !alias.scope !168
  %27 = getelementptr inbounds i8, ptr %8, i64 16
  store ptr null, ptr %27, align 8, !alias.scope !168
  %28 = getelementptr inbounds i8, ptr %8, i64 24
  store ptr inttoptr (i64 4294901761 to ptr), ptr %28, align 8, !alias.scope !168
  %29 = getelementptr inbounds i8, ptr %8, i64 32
  store i32 9, ptr %29, align 8, !alias.scope !168
  %30 = getelementptr inbounds i8, ptr %8, i64 36
  store i32 0, ptr %30, align 4, !alias.scope !168
  %31 = getelementptr inbounds i8, ptr %8, i64 40
  store ptr null, ptr %31, align 8, !alias.scope !168
  %32 = getelementptr inbounds i8, ptr %8, i64 48
  store ptr inttoptr (i64 4294901761 to ptr), ptr %32, align 8, !alias.scope !168
  tail call void (ptr, ptr, ptr, ...) @_ZN13ClassVerifier12verify_errorE12ErrorContextPKcz(ptr noundef nonnull align 8 dereferenceable(8192) %0, ptr noundef nonnull byval(%class.ErrorContext) align 8 %8, ptr noundef nonnull @.str.99)
  br label %68

33:                                               ; preds = %15
  %34 = icmp eq i32 %21, %2
  br i1 %34, label %35, label %54

35:                                               ; preds = %33
  store <4 x i32> <i32 -1, i32 11, i32 9, i32 0>, ptr %9, align 16
  %36 = getelementptr inbounds i8, ptr %9, i64 16
  store ptr null, ptr %36, align 16
  %37 = getelementptr inbounds i8, ptr %9, i64 24
  store ptr inttoptr (i64 4294901761 to ptr), ptr %37, align 8
  %38 = getelementptr inbounds i8, ptr %9, i64 32
  store i32 9, ptr %38, align 16
  %39 = getelementptr inbounds i8, ptr %9, i64 36
  store i32 0, ptr %39, align 4
  %40 = getelementptr inbounds i8, ptr %9, i64 40
  store ptr null, ptr %40, align 8
  %41 = getelementptr inbounds i8, ptr %9, i64 48
  store ptr inttoptr (i64 4294901761 to ptr), ptr %41, align 16
  %42 = xor i1 %5, true
  %43 = call noundef zeroext i1 @_ZNK13StackMapTable14match_stackmapEP13StackMapFrameiibbP12ErrorContextP10JavaThread(ptr noundef nonnull align 8 dereferenceable(16) %4, ptr noundef %3, i32 noundef %2, i32 noundef %11, i1 noundef zeroext %42, i1 noundef zeroext true, ptr noundef nonnull %9, ptr noundef %6) #20
  %44 = getelementptr inbounds i8, ptr %6, i64 8
  %45 = load ptr, ptr %44, align 8
  %46 = icmp ne ptr %45, null
  %47 = getelementptr inbounds i8, ptr %0, i64 24
  %48 = load ptr, ptr %47, align 8
  %49 = icmp ne ptr %48, null
  %or.cond33 = select i1 %46, i1 true, i1 %49
  br i1 %or.cond33, label %68, label %50

50:                                               ; preds = %35
  br i1 %43, label %52, label %51

51:                                               ; preds = %50
  call void (ptr, ptr, ptr, ...) @_ZN13ClassVerifier12verify_errorE12ErrorContextPKcz(ptr noundef nonnull align 8 dereferenceable(8192) %0, ptr noundef nonnull byval(%class.ErrorContext) align 8 %9, ptr noundef nonnull @.str.100)
  br label %68

52:                                               ; preds = %50
  %53 = add i16 %1, 1
  br label %68

54:                                               ; preds = %33
  %55 = icmp slt i32 %21, %2
  br i1 %55, label %56, label %68

56:                                               ; preds = %54
  tail call void (ptr, ptr, ...) @_ZN13ClassVerifier18class_format_errorEPKcz(ptr noundef nonnull align 8 dereferenceable(8192) %0, ptr noundef nonnull @.str.101, i32 noundef %21)
  br label %68

57:                                               ; preds = %7
  br i1 %5, label %58, label %68

58:                                               ; preds = %57
  store i32 %2, ptr %10, align 8, !alias.scope !171
  %59 = getelementptr inbounds i8, ptr %10, i64 4
  store i32 0, ptr %59, align 4, !alias.scope !171
  %60 = getelementptr inbounds i8, ptr %10, i64 8
  store i32 9, ptr %60, align 8, !alias.scope !171
  %61 = getelementptr inbounds i8, ptr %10, i64 12
  store i32 0, ptr %61, align 4, !alias.scope !171
  %62 = getelementptr inbounds i8, ptr %10, i64 16
  store ptr null, ptr %62, align 8, !alias.scope !171
  %63 = getelementptr inbounds i8, ptr %10, i64 24
  store ptr inttoptr (i64 4294901761 to ptr), ptr %63, align 8, !alias.scope !171
  %64 = getelementptr inbounds i8, ptr %10, i64 32
  store i32 9, ptr %64, align 8, !alias.scope !171
  %65 = getelementptr inbounds i8, ptr %10, i64 36
  store i32 0, ptr %65, align 4, !alias.scope !171
  %66 = getelementptr inbounds i8, ptr %10, i64 40
  store ptr null, ptr %66, align 8, !alias.scope !171
  %67 = getelementptr inbounds i8, ptr %10, i64 48
  store ptr inttoptr (i64 4294901761 to ptr), ptr %67, align 8, !alias.scope !171
  tail call void (ptr, ptr, ptr, ...) @_ZN13ClassVerifier12verify_errorE12ErrorContextPKcz(ptr noundef nonnull align 8 dereferenceable(8192) %0, ptr noundef nonnull byval(%class.ErrorContext) align 8 %10, ptr noundef nonnull @.str.99)
  br label %68

68:                                               ; preds = %54, %52, %57, %35, %58, %56, %51, %23
  %.0 = phi i16 [ 0, %23 ], [ 0, %51 ], [ 0, %56 ], [ 0, %58 ], [ 0, %35 ], [ %53, %52 ], [ %1, %54 ], [ %1, %57 ]
  ret i16 %.0
}